GAS LISTING C:\Users\ASE-Lab\AppData\Local\Temp\cckRWfFr.s 			page 1


   1              		.file	"clock.c"
   2              		.section	".text","axv"
   3              	.Ltext0:
   4              		.cfi_sections	.debug_frame
   5              		.section	.text.spc_clock_init.part.0,"axv",@progbits
   6              		.align 1
   7              		.p2align 4,,15
   8              		.type	spc_clock_init.part.0, @function
   9              	spc_clock_init.part.0:
  10              	.LFB14:
  11              		.file 1 "./components/spc56elxx_clock_component_rla/lib/src/clock.c"
  12              		.loc 1 105 0
  13              		.cfi_startproc
  14 0000 182106F8 		e_stwu %r1,-8(%r1)
  15              	.LCFI0:
  16              		.cfi_def_cfa_offset 8
  17 0004 0080     		se_mflr %r0
  18              		.loc 1 112 0
  19 0006 70D8E3FD 		e_lis %r6,0xc3fd
  20              		.loc 1 105 0
  21 000a D301     		se_stw %r0,12(%r1)
  22              		.cfi_offset 65, 4
  23              		.loc 1 112 0
  24 000c 18C6D1C0 		e_ori %r6,%r6,49152
  25              	.L2:
  26 0010 C076     		se_lwz %r7,0(%r6)
  27 0012 67B7     		se_btsti %r7,27
  28 0014 7A12FFFC 		e_beq %cr0,.L2
  29              		.loc 1 119 0
  30 0018 4807     		se_li %r7,0
  31              		.loc 1 130 0
  32 001a 70DFE7F0 		e_lis %r6,0xfff0
  33              		.loc 1 118 0
  34 001e 7098E3FE 		e_lis %r4,0xc3fe
  35 0022 4865     		se_li %r5,6
  36 0024 54A40100 		e_stw %r5,256(%r4)
  37              		.loc 1 119 0
  38 0028 54E40120 		e_stw %r7,288(%r4)
  39              		.loc 1 124 0
  40 002c 70BFE7F3 		e_lis %r5,0xfff3
  41              		.loc 1 120 0
  42 0030 54E40140 		e_stw %r7,320(%r4)
  43              		.loc 1 124 0
  44 0034 6505     		se_bseti %r5,16
  45 0036 70980520 		e_li %r4,50464
  46 003a D445     		se_stw %r4,16(%r5)
  47              		.loc 1 125 0
  48 003c 709B0128 		e_li %r4,55592
  49 0040 D445     		se_stw %r4,16(%r5)
  50              		.loc 1 126 0
  51 0042 709FE700 		e_lis %r4,0xff00
  52 0046 1884D00A 		e_ori %r4,%r4,10
  53 004a D045     		se_stw %r4,0(%r5)
  54              		.loc 1 130 0
  55 004c 70AEE777 		e_lis %r5,0x7777
  56              	.LBB32:
  57              	.LBB33:
GAS LISTING C:\Users\ASE-Lab\AppData\Local\Temp\cckRWfFr.s 			page 2


  58              		.loc 1 49 0
  59 0050 709FE7E6 		e_lis %r4,0xffe6
  60              	.LBE33:
  61              	.LBE32:
  62              		.loc 1 130 0
  63 0054 70AEC777 		e_or2i %r5,30583
  64              	.LBB37:
  65              	.LBB34:
  66              		.loc 1 49 0
  67 0058 1884D1C0 		e_ori %r4,%r4,49152
  68              	.LBE34:
  69              	.LBE37:
  70              		.loc 1 130 0
  71 005c D056     		se_stw %r5,0(%r6)
  72              		.loc 1 131 0
  73 005e D876     		se_stw %r7,32(%r6)
  74              	.LBB38:
  75              	.LBB35:
  76              		.loc 1 51 0
  77 0060 0145     		se_mr %r5,%r4
  78              	.LBE35:
  79              	.LBE38:
  80              		.loc 1 132 0
  81 0062 D976     		se_stw %r7,36(%r6)
  82              		.loc 1 133 0
  83 0064 DA76     		se_stw %r7,40(%r6)
  84              		.loc 1 134 0
  85 0066 DB76     		se_stw %r7,44(%r6)
  86              		.loc 1 135 0
  87 0068 54E60040 		e_stw %r7,64(%r6)
  88              		.loc 1 136 0
  89 006c 54E60044 		e_stw %r7,68(%r6)
  90              		.loc 1 137 0
  91 0070 54E60048 		e_stw %r7,72(%r6)
  92              		.loc 1 138 0
  93 0074 54E6004C 		e_stw %r7,76(%r6)
  94              		.loc 1 139 0
  95 0078 54E60050 		e_stw %r7,80(%r6)
  96              		.loc 1 140 0
  97 007c 54E60054 		e_stw %r7,84(%r6)
  98              		.loc 1 141 0
  99 0080 54E60058 		e_stw %r7,88(%r6)
 100              		.loc 1 142 0
 101 0084 54E6005C 		e_stw %r7,92(%r6)
 102              		.loc 1 143 0
 103 0088 54E60060 		e_stw %r7,96(%r6)
 104              		.loc 1 144 0
 105 008c 54E60064 		e_stw %r7,100(%r6)
 106              		.loc 1 145 0
 107 0090 54E60068 		e_stw %r7,104(%r6)
 108              		.loc 1 146 0
 109 0094 54E6006C 		e_stw %r7,108(%r6)
 110              		.loc 1 150 0
 111 0098 4836     		se_li %r6,3
 112 009a 70F8E3FD 		e_lis %r7,0xc3fd
 113 009e 6507     		se_bseti %r7,16
 114 00a0 B367     		se_sth %r6,6(%r7)
GAS LISTING C:\Users\ASE-Lab\AppData\Local\Temp\cckRWfFr.s 			page 3


 115              	.LBB39:
 116              	.LBB36:
 117              		.loc 1 49 0
 118 00a2 70ECE18B 		e_lis %r7,0x618b
 119 00a6 70EFC250 		e_or2i %r7,31312
 120 00aa 54E4007C 		e_stw %r7,124(%r4)
 121              		.loc 1 50 0
 122 00ae 2C07     		se_bmaski %r7,0
 123 00b0 54E4006C 		e_stw %r7,108(%r4)
 124              	.L3:
 125              		.loc 1 51 0
 126 00b4 C075     		se_lwz %r7,0(%r5)
 127 00b6 74E7D7BF 		e_rlwinm %r7,%r7,26,30,31
 128 00ba 2227     		se_cmpli %r7,3
 129 00bc 7A02FFF8 		e_bne %cr0,.L3
 130              		.loc 1 55 0
 131 00c0 70F5E334 		e_lis %r7,0xab34
 132              		.loc 1 57 0
 133 00c4 70DFE7E6 		e_lis %r6,0xffe6
 134              		.loc 1 55 0
 135 00c8 70F3C0FE 		e_or2i %r7,39166
 136              		.loc 1 57 0
 137 00cc 18C6D1C0 		e_ori %r6,%r6,49152
 138              		.loc 1 55 0
 139 00d0 54E50090 		e_stw %r7,144(%r5)
 140              		.loc 1 56 0
 141 00d4 2C07     		se_bmaski %r7,0
 142 00d6 54E50080 		e_stw %r7,128(%r5)
 143              	.L4:
 144              		.loc 1 57 0
 145 00da C076     		se_lwz %r7,0(%r6)
 146 00dc 74E7D7BF 		e_rlwinm %r7,%r7,26,30,31
 147 00e0 2227     		se_cmpli %r7,3
 148 00e2 7A02FFF8 		e_bne %cr0,.L4
 149              		.loc 1 61 0
 150 00e6 2C06     		se_bmaski %r6,0
 151 00e8 70F8E3FE 		e_lis %r7,0xc3fe
 152 00ec 6517     		se_bseti %r7,17
 153 00ee B067     		se_sth %r6,0(%r7)
 154              		.loc 1 62 0
 155 00f0 B167     		se_sth %r6,2(%r7)
 156              	.LBE36:
 157              	.LBE39:
 158              	.LBB40:
 159              	.LBB41:
 160              		.loc 1 284 0
 161 00f2 1CE78000 		e_add16i %r7,%r7,-32768
 162 00f6 C077     		se_lwz %r7,0(%r7)
 163 00f8 69C7     		se_srwi %r7,28
 164              	.LBE41:
 165              	.LBE40:
 166              		.loc 1 160 0
 167 00fa 2227     		se_cmpli %r7,3
 168 00fc 7A120008 		e_beq %cr0,.L5
 169              		.loc 1 161 0
 170 0100 78000001 		e_bl irqSysHalt
 171              	.LVL0:
GAS LISTING C:\Users\ASE-Lab\AppData\Local\Temp\cckRWfFr.s 			page 4


 172              	.L5:
 173              		.loc 1 173 0
 174 0104 70F8E3FE 		e_lis %r7,0xc3fe
 175              		.loc 1 175 0
 176 0108 70C0E500 		e_lis %r6,0x500
 177              		.loc 1 176 0
 178 010c 7070E100 		e_lis %r3,0x8100
 179              		.loc 1 180 0
 180 0110 6274     		se_bgeni %r4,7
 181              		.loc 1 173 0
 182 0112 70BF7F81 		e_li %r5,-127
 183 0116 34A7037C 		e_stb %r5,892(%r7)
 184              		.loc 1 174 0
 185 011a 70B0E185 		e_lis %r5,0x8185
 186 011e 54A70384 		e_stw %r5,900(%r7)
 187              		.loc 1 175 0
 188 0122 54C70380 		e_stw %r6,896(%r7)
 189              		.loc 1 186 0
 190 0126 70B8E3FD 		e_lis %r5,0xc3fd
 191              		.loc 1 176 0
 192 012a 5467038C 		e_stw %r3,908(%r7)
 193              		.loc 1 186 0
 194 012e 18A5D1C0 		e_ori %r5,%r5,49152
 195              		.loc 1 177 0
 196 0132 54C70388 		e_stw %r6,904(%r7)
 197              		.loc 1 178 0
 198 0136 54670394 		e_stw %r3,916(%r7)
 199              		.loc 1 179 0
 200 013a 54C70390 		e_stw %r6,912(%r7)
 201              		.loc 1 180 0
 202 013e 54870398 		e_stw %r4,920(%r7)
 203              	.LBB42:
 204              	.LBB43:
 205              		.loc 1 306 0
 206 0142 0156     		se_mr %r6,%r5
 207              	.LBE43:
 208              	.LBE42:
 209              		.loc 1 181 0
 210 0144 548703A0 		e_stw %r4,928(%r7)
 211              		.loc 1 186 0
 212 0148 70E0E01F 		e_lis %r7,0x1f
 213 014c 18E7D030 		e_ori %r7,%r7,48
 214 0150 DB75     		se_stw %r7,44(%r5)
 215              	.LVL1:
 216              	.LBB45:
 217              	.LBB44:
 218              		.loc 1 299 0
 219 0152 49F7     		se_li %r7,31
 220 0154 D375     		se_stw %r7,12(%r5)
 221              		.loc 1 302 0
 222 0156 70E6E000 		e_lis %r7,0x3000
 223 015a 70EBC2F0 		e_or2i %r7,23280
 224 015e D175     		se_stw %r7,4(%r5)
 225              		.loc 1 303 0
 226 0160 70E6E000 		e_lis %r7,0x3000
 227 0164 70F4C50F 		e_or2i %r7,42255
 228 0168 D175     		se_stw %r7,4(%r5)
GAS LISTING C:\Users\ASE-Lab\AppData\Local\Temp\cckRWfFr.s 			page 5


 229              	.L6:
 230              		.loc 1 306 0
 231 016a C376     		se_lwz %r7,12(%r6)
 232 016c 2A07     		se_cmpi %r7,0
 233 016e 7A12FFFC 		e_beq %cr0,.L6
 234              		.loc 1 310 0
 235 0172 C376     		se_lwz %r7,12(%r6)
 236 0174 67F7     		se_btsti %r7,31
 237 0176 7A020008 		e_bne %cr0,.L11
 238              	.LBE44:
 239              	.LBE45:
 240              		.loc 1 189 0
 241 017a 78000001 		e_bl irqSysHalt
 242              	.LVL2:
 243              	.L11:
 244              		.loc 1 193 0
 245 017e 70D8E3FE 		e_lis %r6,0xc3fe
 246 0182 7082E13C 		e_lis %r4,0x113c
 247              		.loc 1 197 0
 248 0186 4805     		se_li %r5,0
 249              		.loc 1 193 0
 250 0188 548600A0 		e_stw %r4,160(%r6)
 251              		.loc 1 207 0
 252 018c 70F8E3FD 		e_lis %r7,0xc3fd
 253              		.loc 1 197 0
 254 0190 54A600A4 		e_stw %r5,164(%r6)
 255              		.loc 1 207 0
 256 0194 18E7D1C0 		e_ori %r7,%r7,49152
 257              		.loc 1 198 0
 258 0198 548600C0 		e_stw %r4,192(%r6)
 259              		.loc 1 202 0
 260 019c 54A600C4 		e_stw %r5,196(%r6)
 261              		.loc 1 207 0
 262 01a0 4886     		se_li %r6,8
 263 01a2 D367     		se_stw %r6,12(%r7)
 264              		.loc 1 208 0
 265 01a4 70C005FD 		e_li %r6,1533
 266 01a8 D267     		se_stw %r6,8(%r7)
 267              		.loc 1 209 0
 268 01aa 70C0E09F 		e_lis %r6,0x9f
 269 01ae 65B6     		se_bseti %r6,27
 270 01b0 DA67     		se_stw %r6,40(%r7)
 271              		.loc 1 210 0
 272 01b2 70C0E01F 		e_lis %r6,0x1f
 273 01b6 18C6D074 		e_ori %r6,%r6,116
 274 01ba DB67     		se_stw %r6,44(%r7)
 275              		.loc 1 211 0
 276 01bc 70C0E01F 		e_lis %r6,0x1f
 277 01c0 18C6D0F4 		e_ori %r6,%r6,244
 278 01c4 DC67     		se_stw %r6,48(%r7)
 279              		.loc 1 212 0
 280 01c6 70C0E01F 		e_lis %r6,0x1f
 281 01ca 65B6     		se_bseti %r6,27
 282 01cc DD67     		se_stw %r6,52(%r7)
 283              		.loc 1 213 0
 284 01ce DE67     		se_stw %r6,56(%r7)
 285              		.loc 1 214 0
GAS LISTING C:\Users\ASE-Lab\AppData\Local\Temp\cckRWfFr.s 			page 6


 286 01d0 DF67     		se_stw %r6,60(%r7)
 287              		.loc 1 215 0
 288 01d2 70C0E01A 		e_lis %r6,0x1a
 289 01d6 65B6     		se_bseti %r6,27
 290 01d8 54C70040 		e_stw %r6,64(%r7)
 291              		.loc 1 216 0
 292 01dc 70C0E015 		e_lis %r6,0x15
 293 01e0 65B6     		se_bseti %r6,27
 294 01e2 54C70048 		e_stw %r6,72(%r7)
 295              		.loc 1 217 0
 296 01e6 C377     		se_lwz %r7,12(%r7)
 297 01e8 67C7     		se_btsti %r7,28
 298 01ea 7A0200C6 		e_bne %cr0,.L20
 299              	.L8:
 300              		.loc 1 223 0
 301 01ee 4805     		se_li %r5,0
 302              		.loc 1 243 0
 303 01f0 4833     		se_li %r3,3
 304              		.loc 1 224 0
 305 01f2 70C000FC 		e_li %r6,252
 306              		.loc 1 223 0
 307 01f6 70F8E3FD 		e_lis %r7,0xc3fd
 308              		.loc 1 243 0
 309 01fa 7098E3F8 		e_lis %r4,0xc3f8
 310              		.loc 1 223 0
 311 01fe 18E7D1C0 		e_ori %r7,%r7,49152
 312              		.loc 1 243 0
 313 0202 6504     		se_bseti %r4,16
 314              		.loc 1 223 0
 315 0204 54A70080 		e_stw %r5,128(%r7)
 316              		.loc 1 234 0
 317 0208 6350     		se_bgeni %r0,21
 318              		.loc 1 224 0
 319 020a 54C70084 		e_stw %r6,132(%r7)
 320              		.loc 1 225 0
 321 020e 70C000F8 		e_li %r6,248
 322 0212 54C70088 		e_stw %r6,136(%r7)
 323              		.loc 1 226 0
 324 0216 54A7008C 		e_stw %r5,140(%r7)
 325              		.loc 1 232 0
 326 021a 70C00500 		e_li %r6,1280
 327              		.loc 1 227 0
 328 021e 54A70090 		e_stw %r5,144(%r7)
 329              		.loc 1 228 0
 330 0222 54A70094 		e_stw %r5,148(%r7)
 331              		.loc 1 229 0
 332 0226 54A70098 		e_stw %r5,152(%r7)
 333              		.loc 1 230 0
 334 022a 54A7009C 		e_stw %r5,156(%r7)
 335              		.loc 1 231 0
 336 022e 54A700A0 		e_stw %r5,160(%r7)
 337              		.loc 1 232 0
 338 0232 54C700A4 		e_stw %r6,164(%r7)
 339              		.loc 1 233 0
 340 0236 6376     		se_bgeni %r6,23
 341 0238 54C700A8 		e_stw %r6,168(%r7)
 342              		.loc 1 234 0
GAS LISTING C:\Users\ASE-Lab\AppData\Local\Temp\cckRWfFr.s 			page 7


 343 023c 540700AC 		e_stw %r0,172(%r7)
 344              	.LBB46:
 345              	.LBB47:
 346              		.loc 1 306 0
 347 0240 0176     		se_mr %r6,%r7
 348              	.LBE47:
 349              	.LBE46:
 350              		.loc 1 235 0
 351 0242 54A700B0 		e_stw %r5,176(%r7)
 352              		.loc 1 236 0
 353 0246 54A700B4 		e_stw %r5,180(%r7)
 354              		.loc 1 237 0
 355 024a 54A700B8 		e_stw %r5,184(%r7)
 356              		.loc 1 238 0
 357 024e 54A700BC 		e_stw %r5,188(%r7)
 358              		.loc 1 243 0
 359 0252 C754     		se_lwz %r5,28(%r4)
 360 0254 7465D808 		e_rlwimi %r5,%r3,27,0,4
 361 0258 D754     		se_stw %r5,28(%r4)
 362              		.loc 1 244 0
 363 025a C754     		se_lwz %r5,28(%r4)
 364 025c 7465B152 		e_rlwimi %r5,%r3,22,5,9
 365 0260 D754     		se_stw %r5,28(%r4)
 366              		.loc 1 245 0
 367 0262 C754     		se_lwz %r5,28(%r4)
 368 0264 74658A9C 		e_rlwimi %r5,%r3,17,10,14
 369 0268 D754     		se_stw %r5,28(%r4)
 370              	.LVL3:
 371              	.LBB49:
 372              	.LBB48:
 373              		.loc 1 299 0
 374 026a 49F5     		se_li %r5,31
 375 026c D357     		se_stw %r5,12(%r7)
 376              		.loc 1 302 0
 377 026e 70A6E000 		e_lis %r5,0x3000
 378 0272 70ABC2F0 		e_or2i %r5,23280
 379 0276 D157     		se_stw %r5,4(%r7)
 380              		.loc 1 303 0
 381 0278 70A6E000 		e_lis %r5,0x3000
 382 027c 70B4C50F 		e_or2i %r5,42255
 383 0280 D157     		se_stw %r5,4(%r7)
 384              	.L9:
 385              		.loc 1 306 0
 386 0282 C376     		se_lwz %r7,12(%r6)
 387 0284 2A07     		se_cmpi %r7,0
 388 0286 7A12FFFC 		e_beq %cr0,.L9
 389              		.loc 1 310 0
 390 028a C376     		se_lwz %r7,12(%r6)
 391 028c 67F7     		se_btsti %r7,31
 392 028e 7A020008 		e_bne %cr0,.L12
 393              	.LBE48:
 394              	.LBE49:
 395              		.loc 1 251 0
 396 0292 78000001 		e_bl irqSysHalt
 397              	.LVL4:
 398              	.L12:
 399              		.loc 1 259 0
GAS LISTING C:\Users\ASE-Lab\AppData\Local\Temp\cckRWfFr.s 			page 8


 400 0296 70F8E3FE 		e_lis %r7,0xc3fe
 401 029a 4805     		se_li %r5,0
 402 029c 50C70370 		e_lwz %r6,880(%r7)
 403 02a0 74A607FE 		e_rlwimi %r6,%r5,0,31,31
 404 02a4 54C70370 		e_stw %r6,880(%r7)
 405              		.loc 1 263 0
 406 02a8 C301     		se_lwz %r0,12(%r1)
 407 02aa 0090     		se_mtlr %r0
 408              		.cfi_remember_state
 409              		.cfi_restore 65
 410 02ac 2071     		se_addi %r1,8
 411              	.LCFI1:
 412              		.cfi_def_cfa_offset 0
 413 02ae 0004     		se_blr
 414              	.LVL5:
 415              	.L20:
 416              	.LCFI2:
 417              		.cfi_restore_state
 418              		.loc 1 219 0
 419 02b0 78000001 		e_bl irqSysHalt
 420              	.LVL6:
 421 02b4 79FFFF3A 		e_b .L8
 422              		.cfi_endproc
 423              	.LFE14:
 424              		.size	spc_clock_init.part.0, .-spc_clock_init.part.0
 425              		.section	.text.clockInit,"axv",@progbits
 426              		.align 1
 427              		.p2align 4,,15
 428              		.globl clockInit
 429              		.type	clockInit, @function
 430              	clockInit:
 431              	.LFB6:
 432              		.loc 1 90 0
 433              		.cfi_startproc
 434              	.LVL7:
 435              	.LBB50:
 436              	.LBB51:
 437              		.loc 1 299 0
 438 0000 49F6     		se_li %r6,31
 439 0002 70F8E3FD 		e_lis %r7,0xc3fd
 440              		.loc 1 303 0
 441 0006 6215     		se_bgeni %r5,1
 442              		.loc 1 299 0
 443 0008 18E7D1C0 		e_ori %r7,%r7,49152
 444              		.loc 1 303 0
 445 000c 70B4C50F 		e_or2i %r5,42255
 446              		.loc 1 299 0
 447 0010 D367     		se_stw %r6,12(%r7)
 448              		.loc 1 302 0
 449 0012 6216     		se_bgeni %r6,1
 450 0014 70CBC2F0 		e_or2i %r6,23280
 451 0018 D167     		se_stw %r6,4(%r7)
 452              		.loc 1 306 0
 453 001a 0176     		se_mr %r6,%r7
 454              		.loc 1 303 0
 455 001c D157     		se_stw %r5,4(%r7)
 456              	.L22:
GAS LISTING C:\Users\ASE-Lab\AppData\Local\Temp\cckRWfFr.s 			page 9


 457              		.loc 1 306 0
 458 001e C376     		se_lwz %r7,12(%r6)
 459 0020 2A07     		se_cmpi %r7,0
 460 0022 7A12FFFC 		e_beq %cr0,.L22
 461              		.loc 1 310 0
 462 0026 C376     		se_lwz %r7,12(%r6)
 463 0028 67F7     		se_btsti %r7,31
 464 002a 7A020008 		e_bne %cr0,.L25
 465              	.LBE51:
 466              	.LBE50:
 467              		.loc 1 96 0
 468              		.loc 1 94 0
 469 002e 78000000 		e_b irqSysHalt
 470              	.LVL8:
 471              	.L25:
 472 0032 0004     		se_blr
 473              		.cfi_endproc
 474              	.LFE6:
 475              		.size	clockInit, .-clockInit
 476              		.section	.text.spc_clock_init,"axv",@progbits
 477              		.align 1
 478              		.p2align 4,,15
 479              		.globl spc_clock_init
 480              		.type	spc_clock_init, @function
 481              	spc_clock_init:
 482              	.LFB7:
 483              		.loc 1 105 0
 484              		.cfi_startproc
 485              	.LBB52:
 486              	.LBB53:
 487              		.loc 1 74 0
 488 0000 70F8E3FE 		e_lis %r7,0xc3fe
 489 0004 6517     		se_bseti %r7,17
 490 0006 C077     		se_lwz %r7,0(%r7)
 491              	.LBE53:
 492              	.LBE52:
 493              		.loc 1 109 0
 494 0008 6687     		se_btsti %r7,8
 495 000a 7A020008 		e_bne %cr0,.L26
 496              		.loc 1 263 0 discriminator 1
 497 000e 78000000 		e_b spc_clock_init.part.0
 498              	.LVL9:
 499              	.L26:
 500 0012 0004     		se_blr
 501              		.cfi_endproc
 502              	.LFE7:
 503              		.size	spc_clock_init, .-spc_clock_init
 504              		.section	.text.__early_init,"axv",@progbits
 505              		.align 1
 506              		.p2align 4,,15
 507              		.globl __early_init
 508              		.type	__early_init, @function
 509              	__early_init:
 510              	.LFB8:
 511              		.loc 1 272 0
 512              		.cfi_startproc
 513              	.LBB54:
GAS LISTING C:\Users\ASE-Lab\AppData\Local\Temp\cckRWfFr.s 			page 10


 514              	.LBB55:
 515              	.LBB56:
 516              	.LBB57:
 517              		.loc 1 74 0
 518 0000 70F8E3FE 		e_lis %r7,0xc3fe
 519 0004 6517     		se_bseti %r7,17
 520 0006 C077     		se_lwz %r7,0(%r7)
 521              	.LBE57:
 522              	.LBE56:
 523              		.loc 1 109 0
 524 0008 6687     		se_btsti %r7,8
 525 000a 7A120006 		e_beq %cr0,.L30
 526 000e 0004     		se_blr
 527              	.L30:
 528              	.LBE55:
 529              	.LBE54:
 530              		.loc 1 275 0
 531              	.LBB59:
 532              	.LBB58:
 533 0010 78000000 		e_b spc_clock_init.part.0
 534              	.LVL10:
 535              	.LBE58:
 536              	.LBE59:
 537              		.cfi_endproc
 538              	.LFE8:
 539              		.size	__early_init, .-__early_init
 540              		.section	.text.SPCGetRunMode,"axv",@progbits
 541              		.align 1
 542              		.p2align 4,,15
 543              		.globl SPCGetRunMode
 544              		.type	SPCGetRunMode, @function
 545              	SPCGetRunMode:
 546              	.LFB9:
 547              		.loc 1 282 0
 548              		.cfi_startproc
 549              		.loc 1 284 0
 550 0000 70F8E3FD 		e_lis %r7,0xc3fd
 551 0004 18E7D1C0 		e_ori %r7,%r7,49152
 552 0008 C037     		se_lwz %r3,0(%r7)
 553              		.loc 1 285 0
 554 000a 69C3     		se_srwi %r3,28
 555 000c 0004     		se_blr
 556              		.cfi_endproc
 557              	.LFE9:
 558              		.size	SPCGetRunMode, .-SPCGetRunMode
 559              		.section	.text.SPCSetRunMode,"axv",@progbits
 560              		.align 1
 561              		.p2align 4,,15
 562              		.globl SPCSetRunMode
 563              		.type	SPCSetRunMode, @function
 564              	SPCSetRunMode:
 565              	.LFB10:
 566              		.loc 1 296 0
 567              		.cfi_startproc
 568              	.LVL11:
 569              		.loc 1 302 0
 570 0000 6DC3     		se_slwi %r3, 28
GAS LISTING C:\Users\ASE-Lab\AppData\Local\Temp\cckRWfFr.s 			page 11


 571              	.LVL12:
 572              		.loc 1 299 0
 573 0002 70F8E3FD 		e_lis %r7,0xc3fd
 574              		.loc 1 302 0
 575 0006 0136     		se_mr %r6,%r3
 576              		.loc 1 299 0
 577 0008 18E7D1C0 		e_ori %r7,%r7,49152
 578              		.loc 1 302 0
 579 000c 70CBC2F0 		e_or2i %r6,23280
 580              		.loc 1 299 0
 581 0010 49F5     		se_li %r5,31
 582              		.loc 1 303 0
 583 0012 7074C50F 		e_or2i %r3,42255
 584              		.loc 1 299 0
 585 0016 D357     		se_stw %r5,12(%r7)
 586              		.loc 1 302 0
 587 0018 D167     		se_stw %r6,4(%r7)
 588              		.loc 1 306 0
 589 001a 0176     		se_mr %r6,%r7
 590              		.loc 1 303 0
 591 001c D137     		se_stw %r3,4(%r7)
 592              	.L33:
 593              		.loc 1 306 0 discriminator 1
 594 001e C376     		se_lwz %r7,12(%r6)
 595 0020 2A07     		se_cmpi %r7,0
 596 0022 7A12FFFC 		e_beq %cr0,.L33
 597              		.loc 1 310 0
 598 0026 C336     		se_lwz %r3,12(%r6)
 599 0028 2E13     		se_andi %r3,1
 600              		.loc 1 315 0
 601 002a 1863E001 		e_xori %r3,%r3,1
 602 002e 0004     		se_blr
 603              		.cfi_endproc
 604              	.LFE10:
 605              		.size	SPCSetRunMode, .-SPCSetRunMode
 606              		.section	.text.SPCSetPeripheralClockMode,"axv",@progbits
 607              		.align 1
 608              		.p2align 4,,15
 609              		.globl SPCSetPeripheralClockMode
 610              		.type	SPCSetPeripheralClockMode, @function
 611              	SPCSetPeripheralClockMode:
 612              	.LFB11:
 613              		.loc 1 325 0
 614              		.cfi_startproc
 615              	.LVL13:
 616              		.loc 1 328 0
 617 0000 00C4     		se_extzb %r4
 618              	.LVL14:
 619 0002 70F8E3FD 		e_lis %r7,0xc3fd
 620 0006 18E7D1C0 		e_ori %r7,%r7,49152
 621 000a 7C671A14 		add %r3,%r7,%r3
 622              	.LVL15:
 623              	.LBB60:
 624              	.LBB61:
 625              		.loc 1 306 0
 626 000e 0176     		se_mr %r6,%r7
 627              	.LBE61:
GAS LISTING C:\Users\ASE-Lab\AppData\Local\Temp\cckRWfFr.s 			page 12


 628              	.LBE60:
 629              		.loc 1 328 0
 630 0010 348300C0 		e_stb %r4,192(%r3)
 631              	.LBB64:
 632              	.LBB62:
 633              		.loc 1 299 0
 634 0014 49F4     		se_li %r4,31
 635              	.LBE62:
 636              	.LBE64:
 637              		.loc 1 329 0
 638 0016 C157     		se_lwz %r5,4(%r7)
 639              	.LVL16:
 640              	.LBB65:
 641              	.LBB63:
 642              		.loc 1 299 0
 643 0018 D347     		se_stw %r4,12(%r7)
 644              		.loc 1 302 0
 645 001a 18A5C3F0 		e_andi %r5,%r5,-268435456
 646              	.LVL17:
 647 001e 0154     		se_mr %r4,%r5
 648              		.loc 1 303 0
 649 0020 70B4C50F 		e_or2i %r5,42255
 650              		.loc 1 302 0
 651 0024 708BC2F0 		e_or2i %r4,23280
 652 0028 D147     		se_stw %r4,4(%r7)
 653              		.loc 1 303 0
 654 002a D157     		se_stw %r5,4(%r7)
 655              	.L36:
 656              		.loc 1 306 0
 657 002c C376     		se_lwz %r7,12(%r6)
 658 002e 2A07     		se_cmpi %r7,0
 659 0030 7A12FFFC 		e_beq %cr0,.L36
 660              		.loc 1 310 0
 661 0034 C376     		se_lwz %r7,12(%r6)
 662 0036 67F7     		se_btsti %r7,31
 663 0038 7A020008 		e_bne %cr0,.L39
 664              	.LBE63:
 665              	.LBE65:
 666              		.loc 1 333 0
 667              		.loc 1 331 0
 668 003c 78000000 		e_b irqSysHalt
 669              	.LVL18:
 670              	.L39:
 671 0040 0004     		se_blr
 672              		.cfi_endproc
 673              	.LFE11:
 674              		.size	SPCSetPeripheralClockMode, .-SPCSetPeripheralClockMode
 675              		.section	.text.SPCGetSystemClock,"axv",@progbits
 676              		.align 1
 677              		.p2align 4,,15
 678              		.globl SPCGetSystemClock
 679              		.type	SPCGetSystemClock, @function
 680              	SPCGetSystemClock:
 681              	.LFB12:
 682              		.loc 1 341 0
 683              		.cfi_startproc
 684              		.loc 1 344 0
GAS LISTING C:\Users\ASE-Lab\AppData\Local\Temp\cckRWfFr.s 			page 13


 685 0000 70F8E3FD 		e_lis %r7,0xc3fd
 686 0004 4803     		se_li %r3,0
 687 0006 18E7D1C0 		e_ori %r7,%r7,49152
 688 000a C077     		se_lwz %r7,0(%r7)
 689 000c 2EF7     		se_andi %r7,15
 690              	.LVL19:
 691 000e 2237     		se_cmpli %r7,4
 692 0010 7A110012 		e_bgt %cr0,.L41
 693 0014 6C27     		se_slwi %r7, 2
 694              	.LVL20:
 695 0016 70C0E000 		e_lis %r6,.LANCHOR0@ha
 696 001a 1CC60000 		e_la %r6,.LANCHOR0@l(%r6)
 697 001e 7C66382E 		lwzx %r3,%r6,%r7
 698              	.L41:
 699              		.loc 1 355 0
 700 0022 0004     		se_blr
 701              		.cfi_endproc
 702              	.LFE12:
 703              		.size	SPCGetSystemClock, .-SPCGetSystemClock
 704              		.section	.text.SPCGetPeripheralClock,"axv",@progbits
 705              		.align 1
 706              		.p2align 4,,15
 707              		.globl SPCGetPeripheralClock
 708              		.type	SPCGetPeripheralClock, @function
 709              	SPCGetPeripheralClock:
 710              	.LFB13:
 711              		.loc 1 365 0
 712              		.cfi_startproc
 713              	.LVL21:
 714              		.loc 1 367 0
 715 0000 2A03     		se_cmpi %r3,0
 716 0002 7A02002A 		e_bne %cr0,.L49
 717              	.LBB66:
 718              	.LBB67:
 719              		.loc 1 344 0
 720 0006 70F8E3FD 		e_lis %r7,0xc3fd
 721 000a 18E7D1C0 		e_ori %r7,%r7,49152
 722 000e C077     		se_lwz %r7,0(%r7)
 723 0010 2EF7     		se_andi %r7,15
 724              	.LVL22:
 725 0012 2237     		se_cmpli %r7,4
 726 0014 7A010006 		e_ble %cr0,.L50
 727              	.LBE67:
 728              	.LBE66:
 729              		.loc 1 377 0
 730 0018 0004     		se_blr
 731              	.L50:
 732 001a 6C27     		se_slwi %r7, 2
 733              	.LVL23:
 734 001c 70C0E000 		e_lis %r6,.LANCHOR0@ha
 735 0020 1CC60000 		e_la %r6,.LANCHOR0@l(%r6)
 736 0024 7C66382E 		lwzx %r3,%r6,%r7
 737              	.LVL24:
 738 0028 6813     		se_srwi %r3,1
 739 002a 0004     		se_blr
 740              	.LVL25:
 741              	.L49:
GAS LISTING C:\Users\ASE-Lab\AppData\Local\Temp\cckRWfFr.s 			page 14


 742              		.loc 1 375 0
 743 002c 4803     		se_li %r3,0
 744              	.LVL26:
 745              		.loc 1 377 0
 746 002e 0004     		se_blr
 747              		.cfi_endproc
 748              	.LFE13:
 749              		.size	SPCGetPeripheralClock, .-SPCGetPeripheralClock
 750              		.section	.rodata.CSWTCH.9,"a",@progbits
 751              		.align 2
 752              		.set	.LANCHOR0,. + 0
 753              		.type	CSWTCH.9, @object
 754              		.size	CSWTCH.9, 20
 755              	CSWTCH.9:
 756 0000 00F42400 		.long	16000000
 757 0004 00000000 		.long	0
 758 0008 02625A00 		.long	40000000
 759 000c 00000000 		.long	0
 760 0010 07270E00 		.long	120000000
 761              		.section	".text","axv"
 762              	.Letext0:
 763              		.file 2 "c:\\spc5studio\\eclipse\\plugins\\com.st.tools.spc5.tools.gnu.gcc.ppcvle.win32_4.9.4.2018
 764              		.file 3 "c:\\spc5studio\\eclipse\\plugins\\com.st.tools.spc5.tools.gnu.gcc.ppcvle.win32_4.9.4.2018
 765              		.file 4 "./components/spc56elxx_platform_component_rla/lib/include/typedefs.h"
 766              		.file 5 "./components/spc56elxx_platform_component_rla/lib/include/xpc56el.h"
 767              		.file 6 "./components/spc56elxx_clock_component_rla/lib/include/clock.h"
 768              		.file 7 "./components/spc56elxx_irq_component_rla/lib/include/irq.h"