GAS LISTING C:\Users\ASE-Lab\AppData\Local\Temp\ccSa4qNO.s 			page 1


   1              		.file	"eirq.c"
   2              		.section	".text","axv"
   3              	.Ltext0:
   4              		.cfi_sections	.debug_frame
   5              		.section	.text.manage_eirq_interrupt,"axv",@progbits
   6              		.align 1
   7              		.p2align 4,,15
   8              		.globl manage_eirq_interrupt
   9              		.type	manage_eirq_interrupt, @function
  10              	manage_eirq_interrupt:
  11              	.LFB4:
  12              		.file 1 "./components/spc56elxx_irq_component_rla/lib/src/eirq.c"
  13              		.loc 1 46 0
  14              		.cfi_startproc
  15              	.LVL0:
  16 0000 182106E8 		e_stwu %r1,-24(%r1)
  17              	.LCFI0:
  18              		.cfi_def_cfa_offset 24
  19 0004 0080     		se_mflr %r0
  20 0006 1B810908 		e_stmw %r28,8(%r1)
  21 000a D701     		se_stw %r0,28(%r1)
  22              		.cfi_offset 65, 4
  23              		.cfi_offset 28, -16
  24              		.cfi_offset 29, -12
  25              		.cfi_offset 30, -8
  26              		.cfi_offset 31, -4
  27              		.loc 1 49 0
  28 000c 73C0E000 		e_lis %r30,eirqconf@ha
  29 0010 4806     		se_li %r6,0
  30 0012 30FE0000 		e_lbz %r7,eirqconf@l(%r30)
  31 0016 480F     		se_li %r31,0
  32 0018 00D7     		se_extsb %r7
  33 001a 73E79FFF 		e_cmp16i %r7,-1
  34 001e 7A120056 		e_beq %cr0,.L1
  35 0022 013D     		se_mr %r29,%r3
  36              		.loc 1 52 0
  37 0024 1FDE0000 		e_la %r30,eirqconf@l(%r30)
  38              		.loc 1 49 0
  39 0028 2C0C     		se_bmaski %r28,0
  40 002a 7800001A 		e_b .L6
  41              	.LVL1:
  42              	.L3:
  43              		.loc 1 56 0
  44 002e 200F     		se_addi %r31,1
  45              	.LVL2:
  46 0030 00CF     		se_extzb %r31
  47              	.LVL3:
  48              		.loc 1 49 0
  49 0032 7FE71870 		e_slwi %r7,%r31,3
  50 0036 01F6     		se_mr %r6,%r31
  51 0038 7CFE38AE 		lbzx %r7,%r30,%r7
  52 003c 00D7     		se_extsb %r7
  53 003e 0CC7     		se_cmp %r7,%r28
  54 0040 7A120034 		e_beq %cr0,.L1
  55              	.LVL4:
  56              	.L6:
  57              		.loc 1 50 0
GAS LISTING C:\Users\ASE-Lab\AppData\Local\Temp\ccSa4qNO.s 			page 2


  58 0044 00C7     		se_extzb %r7
  59 0046 0CD7     		se_cmp %r7,%r29
  60 0048 7A02FFE6 		e_bne %cr0,.L3
  61              		.loc 1 52 0
  62 004c 6C36     		se_slwi %r6, 3
  63 004e 7CDE3214 		add %r6,%r30,%r6
  64 0052 C176     		se_lwz %r7,4(%r6)
  65 0054 2A07     		se_cmpi %r7,0
  66 0056 7A12FFD8 		e_beq %cr0,.L3
  67              		.loc 1 53 0
  68 005a 00B7     		se_mtctr %r7
  69              		.loc 1 56 0
  70 005c 200F     		se_addi %r31,1
  71              	.LVL5:
  72 005e 00CF     		se_extzb %r31
  73              	.LVL6:
  74              		.loc 1 53 0
  75 0060 0007     		se_bctrl
  76              	.LVL7:
  77              		.loc 1 49 0
  78 0062 7FE71870 		e_slwi %r7,%r31,3
  79 0066 01F6     		se_mr %r6,%r31
  80 0068 7CFE38AE 		lbzx %r7,%r30,%r7
  81 006c 00D7     		se_extsb %r7
  82 006e 0CC7     		se_cmp %r7,%r28
  83 0070 7A02FFD4 		e_bne %cr0,.L6
  84              	.LVL8:
  85              	.L1:
  86              		.loc 1 58 0
  87 0074 C701     		se_lwz %r0,28(%r1)
  88 0076 0090     		se_mtlr %r0
  89              		.cfi_restore 65
  90 0078 1B810808 		e_lmw %r28,8(%r1)
  91 007c 2171     		se_addi %r1,24
  92              	.LCFI1:
  93              		.cfi_restore 31
  94              		.cfi_restore 30
  95              		.cfi_restore 29
  96              		.cfi_restore 28
  97              		.cfi_def_cfa_offset 0
  98 007e 0004     		se_blr
  99              		.cfi_endproc
 100              	.LFE4:
 101              		.size	manage_eirq_interrupt, .-manage_eirq_interrupt
 102              		.section	.text.vector41,"axv",@progbits
 103              		.align 1
 104              		.p2align 4,,15
 105              		.globl vector41
 106              		.type	vector41, @function
 107              	vector41:
 108              	.LFB5:
 109              		.loc 1 68 0
 110              		.cfi_startproc
 111 0000 182106D0 		e_stwu %r1,-48(%r1)
 112              	.LCFI2:
 113              		.cfi_def_cfa_offset 48
 114 0004 0080     		se_mflr %r0
GAS LISTING C:\Users\ASE-Lab\AppData\Local\Temp\ccSa4qNO.s 			page 3


 115 0006 1AE1090C 		e_stmw %r23,12(%r1)
 116 000a DD01     		se_stw %r0,52(%r1)
 117              		.cfi_offset 65, 4
 118              		.cfi_offset 23, -36
 119              		.cfi_offset 24, -32
 120              		.cfi_offset 25, -28
 121              		.cfi_offset 26, -24
 122              		.cfi_offset 27, -20
 123              		.cfi_offset 28, -16
 124              		.cfi_offset 29, -12
 125              		.cfi_offset 30, -8
 126              		.cfi_offset 31, -4
 127              	.LBB10:
 128              	.LBB11:
 129              		.loc 1 49 0
 130 000c 73C0E000 		e_lis %r30,eirqconf@ha
 131              	.LBE11:
 132              	.LBE10:
 133              		.loc 1 73 0
 134 0010 78000001 		e_bl osalEnterCriticalFromISR
 135              	.LVL9:
 136 0014 480D     		se_li %r29,0
 137              		.loc 1 77 0
 138 0016 7398E3F9 		e_lis %r28,0xc3f9
 139              	.LBB14:
 140              	.LBB12:
 141              		.loc 1 49 0
 142 001a 1FDE0000 		e_la %r30,eirqconf@l(%r30)
 143 001e 2C09     		se_bmaski %r25,0
 144 0020 480A     		se_li %r26,0
 145              	.LBE12:
 146              	.LBE14:
 147              		.loc 1 81 0
 148 0022 72E00001 		e_li %r23,1
 149              	.LVL10:
 150              	.L15:
 151              		.loc 1 77 0
 152 0026 C57C     		se_lwz %r7,20(%r28)
 153 0028 77B8063F 		e_rlwinm %r24,%r29,0,0xff
 154              	.LVL11:
 155 002c 40D7     		se_srw %r7,%r29
 156 002e 01DB     		se_mr %r27,%r29
 157 0030 67F7     		se_btsti %r7,31
 158 0032 7A120062 		e_beq %cr0,.L10
 159              	.LVL12:
 160              	.LBB15:
 161              	.LBB13:
 162              		.loc 1 49 0
 163 0036 807E     		se_lbz %r7,0(%r30)
 164 0038 01AF     		se_mr %r31,%r26
 165 003a 00D7     		se_extsb %r7
 166 003c 01A6     		se_mr %r6,%r26
 167 003e 0C97     		se_cmp %r7,%r25
 168 0040 7A02001E 		e_bne %cr0,.L16
 169 0044 7800004A 		e_b .L14
 170              	.LVL13:
 171              	.L12:
GAS LISTING C:\Users\ASE-Lab\AppData\Local\Temp\ccSa4qNO.s 			page 4


 172              		.loc 1 56 0
 173 0048 200F     		se_addi %r31,1
 174              	.LVL14:
 175 004a 00CF     		se_extzb %r31
 176              	.LVL15:
 177              		.loc 1 49 0
 178 004c 7FE71870 		e_slwi %r7,%r31,3
 179 0050 01F6     		se_mr %r6,%r31
 180 0052 7CFE38AE 		lbzx %r7,%r30,%r7
 181 0056 00D7     		se_extsb %r7
 182 0058 0C97     		se_cmp %r7,%r25
 183 005a 7A120034 		e_beq %cr0,.L14
 184              	.LVL16:
 185              	.L16:
 186              		.loc 1 50 0
 187 005e 00C7     		se_extzb %r7
 188 0060 0C78     		se_cmp %r24,%r7
 189 0062 7A02FFE6 		e_bne %cr0,.L12
 190              		.loc 1 52 0
 191 0066 6C36     		se_slwi %r6, 3
 192 0068 7CDE3214 		add %r6,%r30,%r6
 193 006c C176     		se_lwz %r7,4(%r6)
 194 006e 2A07     		se_cmpi %r7,0
 195 0070 7A12FFD8 		e_beq %cr0,.L12
 196              		.loc 1 53 0
 197 0074 00B7     		se_mtctr %r7
 198              		.loc 1 56 0
 199 0076 200F     		se_addi %r31,1
 200              	.LVL17:
 201 0078 00CF     		se_extzb %r31
 202              	.LVL18:
 203              		.loc 1 53 0
 204 007a 0007     		se_bctrl
 205              	.LVL19:
 206              		.loc 1 49 0
 207 007c 7FE71870 		e_slwi %r7,%r31,3
 208 0080 01F6     		se_mr %r6,%r31
 209 0082 7CFE38AE 		lbzx %r7,%r30,%r7
 210 0086 00D7     		se_extsb %r7
 211 0088 0C97     		se_cmp %r7,%r25
 212 008a 7A02FFD4 		e_bne %cr0,.L16
 213              	.LVL20:
 214              	.L14:
 215              	.LBE13:
 216              	.LBE15:
 217              		.loc 1 81 0
 218 008e 7EE7D830 		slw %r7,%r23,%r27
 219 0092 D57C     		se_stw %r7,20(%r28)
 220              	.L10:
 221              	.LVL21:
 222 0094 200D     		se_addi %r29,1
 223              		.loc 1 75 0 discriminator 2
 224 0096 227D     		se_cmpli %r29,8
 225 0098 7A02FF8E 		e_bne %cr0,.L15
 226              		.loc 1 88 0
 227 009c CD01     		se_lwz %r0,52(%r1)
 228 009e 1AE1080C 		e_lmw %r23,12(%r1)
GAS LISTING C:\Users\ASE-Lab\AppData\Local\Temp\ccSa4qNO.s 			page 5


 229              	.LVL22:
 230 00a2 0090     		se_mtlr %r0
 231              		.cfi_restore 65
 232 00a4 18218030 		e_addi %r1,%r1,48
 233              	.LCFI3:
 234              		.cfi_restore 31
 235              		.cfi_restore 30
 236              		.cfi_restore 29
 237              		.cfi_restore 28
 238              		.cfi_restore 27
 239              		.cfi_restore 26
 240              		.cfi_restore 25
 241              		.cfi_restore 24
 242              		.cfi_restore 23
 243              		.cfi_def_cfa_offset 0
 244              		.loc 1 85 0
 245 00a8 78000000 		e_b osalExitCriticalFromISR
 246              	.LVL23:
 247              		.cfi_endproc
 248              	.LFE5:
 249              		.size	vector41, .-vector41
 250              		.section	.text.vector42,"axv",@progbits
 251              		.align 1
 252              		.p2align 4,,15
 253              		.globl vector42
 254              		.type	vector42, @function
 255              	vector42:
 256              	.LFB6:
 257              		.loc 1 97 0
 258              		.cfi_startproc
 259 0000 182106D0 		e_stwu %r1,-48(%r1)
 260              	.LCFI4:
 261              		.cfi_def_cfa_offset 48
 262 0004 0080     		se_mflr %r0
 263 0006 1AE1090C 		e_stmw %r23,12(%r1)
 264 000a DD01     		se_stw %r0,52(%r1)
 265              		.cfi_offset 65, 4
 266              		.cfi_offset 23, -36
 267              		.cfi_offset 24, -32
 268              		.cfi_offset 25, -28
 269              		.cfi_offset 26, -24
 270              		.cfi_offset 27, -20
 271              		.cfi_offset 28, -16
 272              		.cfi_offset 29, -12
 273              		.cfi_offset 30, -8
 274              		.cfi_offset 31, -4
 275              	.LBB16:
 276              	.LBB17:
 277              		.loc 1 49 0
 278 000c 73C0E000 		e_lis %r30,eirqconf@ha
 279              	.LBE17:
 280              	.LBE16:
 281              		.loc 1 102 0
 282 0010 78000001 		e_bl osalEnterCriticalFromISR
 283              	.LVL24:
 284 0014 488D     		se_li %r29,8
 285              		.loc 1 106 0
GAS LISTING C:\Users\ASE-Lab\AppData\Local\Temp\ccSa4qNO.s 			page 6


 286 0016 7398E3F9 		e_lis %r28,0xc3f9
 287              	.LBB20:
 288              	.LBB18:
 289              		.loc 1 49 0
 290 001a 1FDE0000 		e_la %r30,eirqconf@l(%r30)
 291 001e 2C09     		se_bmaski %r25,0
 292 0020 480A     		se_li %r26,0
 293              	.LBE18:
 294              	.LBE20:
 295              		.loc 1 110 0
 296 0022 72E00001 		e_li %r23,1
 297              	.LVL25:
 298              	.L25:
 299              		.loc 1 106 0
 300 0026 C57C     		se_lwz %r7,20(%r28)
 301 0028 77B8063F 		e_rlwinm %r24,%r29,0,0xff
 302              	.LVL26:
 303 002c 40D7     		se_srw %r7,%r29
 304 002e 01DB     		se_mr %r27,%r29
 305 0030 67F7     		se_btsti %r7,31
 306 0032 7A120062 		e_beq %cr0,.L20
 307              	.LVL27:
 308              	.LBB21:
 309              	.LBB19:
 310              		.loc 1 49 0
 311 0036 807E     		se_lbz %r7,0(%r30)
 312 0038 01AF     		se_mr %r31,%r26
 313 003a 00D7     		se_extsb %r7
 314 003c 01A6     		se_mr %r6,%r26
 315 003e 0C97     		se_cmp %r7,%r25
 316 0040 7A02001E 		e_bne %cr0,.L26
 317 0044 7800004A 		e_b .L24
 318              	.LVL28:
 319              	.L22:
 320              		.loc 1 56 0
 321 0048 200F     		se_addi %r31,1
 322              	.LVL29:
 323 004a 00CF     		se_extzb %r31
 324              	.LVL30:
 325              		.loc 1 49 0
 326 004c 7FE71870 		e_slwi %r7,%r31,3
 327 0050 01F6     		se_mr %r6,%r31
 328 0052 7CFE38AE 		lbzx %r7,%r30,%r7
 329 0056 00D7     		se_extsb %r7
 330 0058 0C97     		se_cmp %r7,%r25
 331 005a 7A120034 		e_beq %cr0,.L24
 332              	.LVL31:
 333              	.L26:
 334              		.loc 1 50 0
 335 005e 00C7     		se_extzb %r7
 336 0060 0C78     		se_cmp %r24,%r7
 337 0062 7A02FFE6 		e_bne %cr0,.L22
 338              		.loc 1 52 0
 339 0066 6C36     		se_slwi %r6, 3
 340 0068 7CDE3214 		add %r6,%r30,%r6
 341 006c C176     		se_lwz %r7,4(%r6)
 342 006e 2A07     		se_cmpi %r7,0
GAS LISTING C:\Users\ASE-Lab\AppData\Local\Temp\ccSa4qNO.s 			page 7


 343 0070 7A12FFD8 		e_beq %cr0,.L22
 344              		.loc 1 53 0
 345 0074 00B7     		se_mtctr %r7
 346              		.loc 1 56 0
 347 0076 200F     		se_addi %r31,1
 348              	.LVL32:
 349 0078 00CF     		se_extzb %r31
 350              	.LVL33:
 351              		.loc 1 53 0
 352 007a 0007     		se_bctrl
 353              	.LVL34:
 354              		.loc 1 49 0
 355 007c 7FE71870 		e_slwi %r7,%r31,3
 356 0080 01F6     		se_mr %r6,%r31
 357 0082 7CFE38AE 		lbzx %r7,%r30,%r7
 358 0086 00D7     		se_extsb %r7
 359 0088 0C97     		se_cmp %r7,%r25
 360 008a 7A02FFD4 		e_bne %cr0,.L26
 361              	.LVL35:
 362              	.L24:
 363              	.LBE19:
 364              	.LBE21:
 365              		.loc 1 110 0
 366 008e 7EE7D830 		slw %r7,%r23,%r27
 367 0092 D57C     		se_stw %r7,20(%r28)
 368              	.L20:
 369              	.LVL36:
 370 0094 200D     		se_addi %r29,1
 371              		.loc 1 104 0 discriminator 2
 372 0096 22FD     		se_cmpli %r29,16
 373 0098 7A02FF8E 		e_bne %cr0,.L25
 374              		.loc 1 117 0
 375 009c CD01     		se_lwz %r0,52(%r1)
 376 009e 1AE1080C 		e_lmw %r23,12(%r1)
 377              	.LVL37:
 378 00a2 0090     		se_mtlr %r0
 379              		.cfi_restore 65
 380 00a4 18218030 		e_addi %r1,%r1,48
 381              	.LCFI5:
 382              		.cfi_restore 31
 383              		.cfi_restore 30
 384              		.cfi_restore 29
 385              		.cfi_restore 28
 386              		.cfi_restore 27
 387              		.cfi_restore 26
 388              		.cfi_restore 25
 389              		.cfi_restore 24
 390              		.cfi_restore 23
 391              		.cfi_def_cfa_offset 0
 392              		.loc 1 114 0
 393 00a8 78000000 		e_b osalExitCriticalFromISR
 394              	.LVL38:
 395              		.cfi_endproc
 396              	.LFE6:
 397              		.size	vector42, .-vector42
 398              		.section	.text.vector43,"axv",@progbits
 399              		.align 1
GAS LISTING C:\Users\ASE-Lab\AppData\Local\Temp\ccSa4qNO.s 			page 8


 400              		.p2align 4,,15
 401              		.globl vector43
 402              		.type	vector43, @function
 403              	vector43:
 404              	.LFB7:
 405              		.loc 1 126 0
 406              		.cfi_startproc
 407 0000 182106D0 		e_stwu %r1,-48(%r1)
 408              	.LCFI6:
 409              		.cfi_def_cfa_offset 48
 410 0004 0080     		se_mflr %r0
 411 0006 1AE1090C 		e_stmw %r23,12(%r1)
 412 000a DD01     		se_stw %r0,52(%r1)
 413              		.cfi_offset 65, 4
 414              		.cfi_offset 23, -36
 415              		.cfi_offset 24, -32
 416              		.cfi_offset 25, -28
 417              		.cfi_offset 26, -24
 418              		.cfi_offset 27, -20
 419              		.cfi_offset 28, -16
 420              		.cfi_offset 29, -12
 421              		.cfi_offset 30, -8
 422              		.cfi_offset 31, -4
 423              	.LBB22:
 424              	.LBB23:
 425              		.loc 1 49 0
 426 000c 73C0E000 		e_lis %r30,eirqconf@ha
 427              	.LBE23:
 428              	.LBE22:
 429              		.loc 1 131 0
 430 0010 78000001 		e_bl osalEnterCriticalFromISR
 431              	.LVL39:
 432 0014 490D     		se_li %r29,16
 433              		.loc 1 135 0
 434 0016 7398E3F9 		e_lis %r28,0xc3f9
 435              	.LBB26:
 436              	.LBB24:
 437              		.loc 1 49 0
 438 001a 1FDE0000 		e_la %r30,eirqconf@l(%r30)
 439 001e 2C09     		se_bmaski %r25,0
 440 0020 480A     		se_li %r26,0
 441              	.LBE24:
 442              	.LBE26:
 443              		.loc 1 139 0
 444 0022 72E00001 		e_li %r23,1
 445              	.LVL40:
 446              	.L35:
 447              		.loc 1 135 0
 448 0026 C57C     		se_lwz %r7,20(%r28)
 449 0028 77B8063F 		e_rlwinm %r24,%r29,0,0xff
 450              	.LVL41:
 451 002c 40D7     		se_srw %r7,%r29
 452 002e 01DB     		se_mr %r27,%r29
 453 0030 67F7     		se_btsti %r7,31
 454 0032 7A120062 		e_beq %cr0,.L30
 455              	.LVL42:
 456              	.LBB27:
GAS LISTING C:\Users\ASE-Lab\AppData\Local\Temp\ccSa4qNO.s 			page 9


 457              	.LBB25:
 458              		.loc 1 49 0
 459 0036 807E     		se_lbz %r7,0(%r30)
 460 0038 01AF     		se_mr %r31,%r26
 461 003a 00D7     		se_extsb %r7
 462 003c 01A6     		se_mr %r6,%r26
 463 003e 0C97     		se_cmp %r7,%r25
 464 0040 7A02001E 		e_bne %cr0,.L36
 465 0044 7800004A 		e_b .L34
 466              	.LVL43:
 467              	.L32:
 468              		.loc 1 56 0
 469 0048 200F     		se_addi %r31,1
 470              	.LVL44:
 471 004a 00CF     		se_extzb %r31
 472              	.LVL45:
 473              		.loc 1 49 0
 474 004c 7FE71870 		e_slwi %r7,%r31,3
 475 0050 01F6     		se_mr %r6,%r31
 476 0052 7CFE38AE 		lbzx %r7,%r30,%r7
 477 0056 00D7     		se_extsb %r7
 478 0058 0C97     		se_cmp %r7,%r25
 479 005a 7A120034 		e_beq %cr0,.L34
 480              	.LVL46:
 481              	.L36:
 482              		.loc 1 50 0
 483 005e 00C7     		se_extzb %r7
 484 0060 0C78     		se_cmp %r24,%r7
 485 0062 7A02FFE6 		e_bne %cr0,.L32
 486              		.loc 1 52 0
 487 0066 6C36     		se_slwi %r6, 3
 488 0068 7CDE3214 		add %r6,%r30,%r6
 489 006c C176     		se_lwz %r7,4(%r6)
 490 006e 2A07     		se_cmpi %r7,0
 491 0070 7A12FFD8 		e_beq %cr0,.L32
 492              		.loc 1 53 0
 493 0074 00B7     		se_mtctr %r7
 494              		.loc 1 56 0
 495 0076 200F     		se_addi %r31,1
 496              	.LVL47:
 497 0078 00CF     		se_extzb %r31
 498              	.LVL48:
 499              		.loc 1 53 0
 500 007a 0007     		se_bctrl
 501              	.LVL49:
 502              		.loc 1 49 0
 503 007c 7FE71870 		e_slwi %r7,%r31,3
 504 0080 01F6     		se_mr %r6,%r31
 505 0082 7CFE38AE 		lbzx %r7,%r30,%r7
 506 0086 00D7     		se_extsb %r7
 507 0088 0C97     		se_cmp %r7,%r25
 508 008a 7A02FFD4 		e_bne %cr0,.L36
 509              	.LVL50:
 510              	.L34:
 511              	.LBE25:
 512              	.LBE27:
 513              		.loc 1 139 0
GAS LISTING C:\Users\ASE-Lab\AppData\Local\Temp\ccSa4qNO.s 			page 10


 514 008e 7EE7D830 		slw %r7,%r23,%r27
 515 0092 D57C     		se_stw %r7,20(%r28)
 516              	.L30:
 517              	.LVL51:
 518 0094 200D     		se_addi %r29,1
 519              		.loc 1 133 0 discriminator 2
 520 0096 237D     		se_cmpli %r29,24
 521 0098 7A02FF8E 		e_bne %cr0,.L35
 522              		.loc 1 146 0
 523 009c CD01     		se_lwz %r0,52(%r1)
 524 009e 1AE1080C 		e_lmw %r23,12(%r1)
 525              	.LVL52:
 526 00a2 0090     		se_mtlr %r0
 527              		.cfi_restore 65
 528 00a4 18218030 		e_addi %r1,%r1,48
 529              	.LCFI7:
 530              		.cfi_restore 31
 531              		.cfi_restore 30
 532              		.cfi_restore 29
 533              		.cfi_restore 28
 534              		.cfi_restore 27
 535              		.cfi_restore 26
 536              		.cfi_restore 25
 537              		.cfi_restore 24
 538              		.cfi_restore 23
 539              		.cfi_def_cfa_offset 0
 540              		.loc 1 143 0
 541 00a8 78000000 		e_b osalExitCriticalFromISR
 542              	.LVL53:
 543              		.cfi_endproc
 544              	.LFE7:
 545              		.size	vector43, .-vector43
 546              		.section	.text.vector44,"axv",@progbits
 547              		.align 1
 548              		.p2align 4,,15
 549              		.globl vector44
 550              		.type	vector44, @function
 551              	vector44:
 552              	.LFB8:
 553              		.loc 1 155 0
 554              		.cfi_startproc
 555 0000 182106D0 		e_stwu %r1,-48(%r1)
 556              	.LCFI8:
 557              		.cfi_def_cfa_offset 48
 558 0004 0080     		se_mflr %r0
 559 0006 1AE1090C 		e_stmw %r23,12(%r1)
 560 000a DD01     		se_stw %r0,52(%r1)
 561              		.cfi_offset 65, 4
 562              		.cfi_offset 23, -36
 563              		.cfi_offset 24, -32
 564              		.cfi_offset 25, -28
 565              		.cfi_offset 26, -24
 566              		.cfi_offset 27, -20
 567              		.cfi_offset 28, -16
 568              		.cfi_offset 29, -12
 569              		.cfi_offset 30, -8
 570              		.cfi_offset 31, -4
GAS LISTING C:\Users\ASE-Lab\AppData\Local\Temp\ccSa4qNO.s 			page 11


 571              	.LBB28:
 572              	.LBB29:
 573              		.loc 1 49 0
 574 000c 73C0E000 		e_lis %r30,eirqconf@ha
 575              	.LBE29:
 576              	.LBE28:
 577              		.loc 1 160 0
 578 0010 78000001 		e_bl osalEnterCriticalFromISR
 579              	.LVL54:
 580 0014 498D     		se_li %r29,24
 581              		.loc 1 164 0
 582 0016 7398E3F9 		e_lis %r28,0xc3f9
 583              	.LBB32:
 584              	.LBB30:
 585              		.loc 1 49 0
 586 001a 1FDE0000 		e_la %r30,eirqconf@l(%r30)
 587 001e 2C09     		se_bmaski %r25,0
 588 0020 480A     		se_li %r26,0
 589              	.LBE30:
 590              	.LBE32:
 591              		.loc 1 168 0
 592 0022 72E00001 		e_li %r23,1
 593              	.LVL55:
 594              	.L45:
 595              		.loc 1 164 0
 596 0026 C57C     		se_lwz %r7,20(%r28)
 597 0028 77B8063F 		e_rlwinm %r24,%r29,0,0xff
 598              	.LVL56:
 599 002c 40D7     		se_srw %r7,%r29
 600 002e 01DB     		se_mr %r27,%r29
 601 0030 67F7     		se_btsti %r7,31
 602 0032 7A120062 		e_beq %cr0,.L40
 603              	.LVL57:
 604              	.LBB33:
 605              	.LBB31:
 606              		.loc 1 49 0
 607 0036 807E     		se_lbz %r7,0(%r30)
 608 0038 01AF     		se_mr %r31,%r26
 609 003a 00D7     		se_extsb %r7
 610 003c 01A6     		se_mr %r6,%r26
 611 003e 0C97     		se_cmp %r7,%r25
 612 0040 7A02001E 		e_bne %cr0,.L46
 613 0044 7800004A 		e_b .L44
 614              	.LVL58:
 615              	.L42:
 616              		.loc 1 56 0
 617 0048 200F     		se_addi %r31,1
 618              	.LVL59:
 619 004a 00CF     		se_extzb %r31
 620              	.LVL60:
 621              		.loc 1 49 0
 622 004c 7FE71870 		e_slwi %r7,%r31,3
 623 0050 01F6     		se_mr %r6,%r31
 624 0052 7CFE38AE 		lbzx %r7,%r30,%r7
 625 0056 00D7     		se_extsb %r7
 626 0058 0C97     		se_cmp %r7,%r25
 627 005a 7A120034 		e_beq %cr0,.L44
GAS LISTING C:\Users\ASE-Lab\AppData\Local\Temp\ccSa4qNO.s 			page 12


 628              	.LVL61:
 629              	.L46:
 630              		.loc 1 50 0
 631 005e 00C7     		se_extzb %r7
 632 0060 0C78     		se_cmp %r24,%r7
 633 0062 7A02FFE6 		e_bne %cr0,.L42
 634              		.loc 1 52 0
 635 0066 6C36     		se_slwi %r6, 3
 636 0068 7CDE3214 		add %r6,%r30,%r6
 637 006c C176     		se_lwz %r7,4(%r6)
 638 006e 2A07     		se_cmpi %r7,0
 639 0070 7A12FFD8 		e_beq %cr0,.L42
 640              		.loc 1 53 0
 641 0074 00B7     		se_mtctr %r7
 642              		.loc 1 56 0
 643 0076 200F     		se_addi %r31,1
 644              	.LVL62:
 645 0078 00CF     		se_extzb %r31
 646              	.LVL63:
 647              		.loc 1 53 0
 648 007a 0007     		se_bctrl
 649              	.LVL64:
 650              		.loc 1 49 0
 651 007c 7FE71870 		e_slwi %r7,%r31,3
 652 0080 01F6     		se_mr %r6,%r31
 653 0082 7CFE38AE 		lbzx %r7,%r30,%r7
 654 0086 00D7     		se_extsb %r7
 655 0088 0C97     		se_cmp %r7,%r25
 656 008a 7A02FFD4 		e_bne %cr0,.L46
 657              	.LVL65:
 658              	.L44:
 659              	.LBE31:
 660              	.LBE33:
 661              		.loc 1 168 0
 662 008e 7EE7D830 		slw %r7,%r23,%r27
 663 0092 D57C     		se_stw %r7,20(%r28)
 664              	.L40:
 665              	.LVL66:
 666 0094 200D     		se_addi %r29,1
 667              		.loc 1 162 0 discriminator 2
 668 0096 23FD     		se_cmpli %r29,32
 669 0098 7A02FF8E 		e_bne %cr0,.L45
 670              		.loc 1 175 0
 671 009c CD01     		se_lwz %r0,52(%r1)
 672 009e 1AE1080C 		e_lmw %r23,12(%r1)
 673              	.LVL67:
 674 00a2 0090     		se_mtlr %r0
 675              		.cfi_restore 65
 676 00a4 18218030 		e_addi %r1,%r1,48
 677              	.LCFI9:
 678              		.cfi_restore 31
 679              		.cfi_restore 30
 680              		.cfi_restore 29
 681              		.cfi_restore 28
 682              		.cfi_restore 27
 683              		.cfi_restore 26
 684              		.cfi_restore 25
GAS LISTING C:\Users\ASE-Lab\AppData\Local\Temp\ccSa4qNO.s 			page 13


 685              		.cfi_restore 24
 686              		.cfi_restore 23
 687              		.cfi_def_cfa_offset 0
 688              		.loc 1 172 0
 689 00a8 78000000 		e_b osalExitCriticalFromISR
 690              	.LVL68:
 691              		.cfi_endproc
 692              	.LFE8:
 693              		.size	vector44, .-vector44
 694              		.section	.text.eirqInit,"axv",@progbits
 695              		.align 1
 696              		.p2align 4,,15
 697              		.globl eirqInit
 698              		.type	eirqInit, @function
 699              	eirqInit:
 700              	.LFB9:
 701              		.loc 1 188 0
 702              		.cfi_startproc
 703              		.loc 1 194 0
 704 0000 4887     		se_li %r7,8
 705 0002 70DFE7F4 		e_lis %r6,0xfff4
 706              		.loc 1 207 0
 707 0006 7060E000 		e_lis %r3,eirqconf@ha
 708              		.loc 1 194 0
 709 000a 70D0C069 		e_or2i %r6,32873
 710              		.loc 1 207 0
 711 000e 4805     		se_li %r5,0
 712              		.loc 1 194 0
 713 0010 9076     		se_stb %r7,0(%r6)
 714              		.loc 1 197 0
 715 0012 9176     		se_stb %r7,1(%r6)
 716              		.loc 1 200 0
 717 0014 9276     		se_stb %r7,2(%r6)
 718              		.loc 1 203 0
 719 0016 9376     		se_stb %r7,3(%r6)
 720              	.LVL69:
 721              		.loc 1 207 0
 722 0018 30C30000 		e_lbz %r6,eirqconf@l(%r3)
 723 001c 4807     		se_li %r7,0
 724 001e 00D6     		se_extsb %r6
 725 0020 73E69FFF 		e_cmp16i %r6,-1
 726 0024 7A1200CC 		e_beq %cr0,.L49
 727              		.loc 1 210 0
 728 0028 1C630000 		e_la %r3,eirqconf@l(%r3)
 729 002c 71200001 		e_li %r9,1
 730              		.loc 1 211 0
 731 0030 7178E3F9 		e_lis %r11,0xc3f9
 732              		.loc 1 207 0
 733 0034 2C00     		se_bmaski %r0,0
 734 0036 78000046 		e_b .L57
 735              	.LVL70:
 736              	.L61:
 737              		.loc 1 214 0
 738 003a 7CE41870 		e_slwi %r4,%r7,3
 739 003e 7D263030 		slw %r6,%r9,%r6
 740              	.LVL71:
 741 0042 7C832214 		add %r4,%r3,%r4
GAS LISTING C:\Users\ASE-Lab\AppData\Local\Temp\ccSa4qNO.s 			page 14


 742 0046 8244     		se_lbz %r4,2(%r4)
 743 0048 2A14     		se_cmpi %r4,1
 744 004a 7A120064 		e_beq %cr0,.L59
 745              	.L53:
 746              		.loc 1 218 0
 747 004e 6C37     		se_slwi %r7, 3
 748 0050 7CE33A14 		add %r7,%r3,%r7
 749 0054 8377     		se_lbz %r7,3(%r7)
 750 0056 2A17     		se_cmpi %r7,1
 751 0058 7A12006E 		e_beq %cr0,.L60
 752              	.L54:
 753              		.loc 1 222 0
 754 005c 50EB0018 		e_lwz %r7,24(%r11)
 755              		.loc 1 223 0
 756 0060 2005     		se_addi %r5,1
 757              	.LVL72:
 758              		.loc 1 222 0
 759 0062 4476     		se_or %r6,%r7
 760              		.loc 1 223 0
 761 0064 00C5     		se_extzb %r5
 762              	.LVL73:
 763              		.loc 1 222 0
 764 0066 54CB0018 		e_stw %r6,24(%r11)
 765              		.loc 1 207 0
 766 006a 0157     		se_mr %r7,%r5
 767 006c 7CA61870 		e_slwi %r6,%r5,3
 768 0070 7CC330AE 		lbzx %r6,%r3,%r6
 769 0074 00D6     		se_extsb %r6
 770 0076 0C06     		se_cmp %r6,%r0
 771 0078 7A120078 		e_beq %cr0,.L49
 772              	.LVL74:
 773              	.L57:
 774              		.loc 1 210 0
 775 007c 7CE41870 		e_slwi %r4,%r7,3
 776              		.loc 1 208 0
 777 0080 00C6     		se_extzb %r6
 778              	.LVL75:
 779              		.loc 1 210 0
 780 0082 7C832214 		add %r4,%r3,%r4
 781 0086 8144     		se_lbz %r4,1(%r4)
 782 0088 2A14     		se_cmpi %r4,1
 783 008a 7A02FFB0 		e_bne %cr0,.L61
 784              		.loc 1 211 0
 785 008e 514B0028 		e_lwz %r10,40(%r11)
 786 0092 7C863030 		slw %r6,%r4,%r6
 787              	.LVL76:
 788 0096 7CC45378 		or %r4,%r6,%r10
 789 009a 548B0028 		e_stw %r4,40(%r11)
 790              		.loc 1 214 0
 791 009e 7CE41870 		e_slwi %r4,%r7,3
 792 00a2 7C832214 		add %r4,%r3,%r4
 793 00a6 8244     		se_lbz %r4,2(%r4)
 794 00a8 2A14     		se_cmpi %r4,1
 795 00aa 7A02FFA4 		e_bne %cr0,.L53
 796              	.L59:
 797              		.loc 1 215 0
 798 00ae 508B002C 		e_lwz %r4,44(%r11)
GAS LISTING C:\Users\ASE-Lab\AppData\Local\Temp\ccSa4qNO.s 			page 15


 799              		.loc 1 218 0
 800 00b2 6C37     		se_slwi %r7, 3
 801              		.loc 1 215 0
 802 00b4 4464     		se_or %r4,%r6
 803              		.loc 1 218 0
 804 00b6 7CE33A14 		add %r7,%r3,%r7
 805              		.loc 1 215 0
 806 00ba 548B002C 		e_stw %r4,44(%r11)
 807              		.loc 1 218 0
 808 00be 8377     		se_lbz %r7,3(%r7)
 809 00c0 2A17     		se_cmpi %r7,1
 810 00c2 7A02FF9A 		e_bne %cr0,.L54
 811              	.L60:
 812              		.loc 1 219 0
 813 00c6 50EB0030 		e_lwz %r7,48(%r11)
 814              		.loc 1 223 0
 815 00ca 2005     		se_addi %r5,1
 816              	.LVL77:
 817              		.loc 1 219 0
 818 00cc 4467     		se_or %r7,%r6
 819              		.loc 1 223 0
 820 00ce 00C5     		se_extzb %r5
 821              	.LVL78:
 822              		.loc 1 219 0
 823 00d0 54EB0030 		e_stw %r7,48(%r11)
 824              		.loc 1 222 0
 825 00d4 50EB0018 		e_lwz %r7,24(%r11)
 826 00d8 4476     		se_or %r6,%r7
 827              		.loc 1 207 0
 828 00da 0157     		se_mr %r7,%r5
 829              		.loc 1 222 0
 830 00dc 54CB0018 		e_stw %r6,24(%r11)
 831              		.loc 1 207 0
 832 00e0 7CA61870 		e_slwi %r6,%r5,3
 833 00e4 7CC330AE 		lbzx %r6,%r3,%r6
 834 00e8 00D6     		se_extsb %r6
 835 00ea 0C06     		se_cmp %r6,%r0
 836 00ec 7A02FF90 		e_bne %cr0,.L57
 837              	.LVL79:
 838              	.L49:
 839 00f0 0004     		se_blr
 840              		.cfi_endproc
 841              	.LFE9:
 842              		.size	eirqInit, .-eirqInit
 843              		.section	".text","axv"
 844              	.Letext0:
 845              		.file 2 "c:\\spc5studio\\eclipse\\plugins\\com.st.tools.spc5.tools.gnu.gcc.ppcvle.win32_4.9.4.2018
 846              		.file 3 "c:\\spc5studio\\eclipse\\plugins\\com.st.tools.spc5.tools.gnu.gcc.ppcvle.win32_4.9.4.2018
 847              		.file 4 "./components/spc56elxx_platform_component_rla/lib/include/typedefs.h"
 848              		.file 5 "./components/spc56elxx_platform_component_rla/lib/include/xpc56el.h"
 849              		.file 6 "./components/spc56elxx_irq_component_rla/lib/include/eirq.h"
 850              		.file 7 "./components/spc56elxx_osal_component_rla/lib/include/osal.h"
 851              		.file 8 "./components/spc56elxx_irq_component_rla/cfg/eirq_cfg.h"